target datalayout = "e-m:e-p270:32:32-p271:32:32-p272:64:64-i64:64-i128:128-f80:128-n8:16:32:64-S128"
target triple = "x86_64-pc-linux-gnu"

; Function Attrs: nounwind uwtable
define ptr @lv_tabview_get_tab_bar(ptr noundef %0) #0 {
  %2 = alloca ptr, align 8
  store ptr %0, ptr %2, align 8, !tbaa !3
  %3 = load ptr, ptr %2, align 8, !tbaa !3
  %4 = call ptr @lv_obj_get_child(ptr noundef %3, i32 noundef 0)
  ret ptr %4
}

; Function Attrs: nounwind uwtable
define ptr @lv_tabview_get_content(ptr noundef %0) #0 {
  %2 = alloca ptr, align 8
  store ptr %0, ptr %2, align 8, !tbaa !3
  %3 = load ptr, ptr %2, align 8, !tbaa !3
  %4 = call ptr @lv_obj_get_child(ptr noundef %3, i32 noundef 1)
  ret ptr %4
}

; Function Attrs: nounwind uwtable
define ptr @lv_tabview_add_tab(ptr noundef %0, ptr noundef %1) #0 {
  %3 = alloca ptr, align 8
  %4 = alloca ptr, align 8
  %5 = alloca ptr, align 8
  %6 = alloca ptr, align 8
  %7 = alloca i32, align 4
  %8 = alloca ptr, align 8
  %9 = alloca ptr, align 8
  %10 = alloca ptr, align 8
  %11 = alloca ptr, align 8
  store ptr %0, ptr %3, align 8, !tbaa !3
  store ptr %1, ptr %4, align 8, !tbaa !3
  br label %12

12:                                               ; preds = %2
  br label %13

13:                                               ; preds = %12
  call void @llvm.lifetime.start.p0(i64 8, ptr %5) #4
  %14 = load ptr, ptr %3, align 8, !tbaa !3
  %15 = call ptr @lv_tabview_get_content(ptr noundef %14)
  store ptr %15, ptr %5, align 8, !tbaa !3
  call void @llvm.lifetime.start.p0(i64 8, ptr %6) #4
  %16 = load ptr, ptr %5, align 8, !tbaa !3
  %17 = call ptr @lv_obj_create(ptr noundef %16)
  store ptr %17, ptr %6, align 8, !tbaa !3
  %18 = load ptr, ptr %6, align 8, !tbaa !3
  %19 = call i32 @lv_pct(i32 noundef 100)
  %20 = call i32 @lv_pct(i32 noundef 100)
  call void @lv_obj_set_size(ptr noundef %18, i32 noundef %19, i32 noundef %20)
  call void @llvm.lifetime.start.p0(i64 4, ptr %7) #4
  %21 = load ptr, ptr %5, align 8, !tbaa !3
  %22 = call i32 @lv_obj_get_child_count(ptr noundef %21)
  store i32 %22, ptr %7, align 4, !tbaa !13
  call void @llvm.lifetime.start.p0(i64 8, ptr %8) #4
  %23 = load ptr, ptr %3, align 8, !tbaa !3
  %24 = call ptr @lv_tabview_get_tab_bar(ptr noundef %23)
  store ptr %24, ptr %8, align 8, !tbaa !3
  call void @llvm.lifetime.start.p0(i64 8, ptr %9) #4
  %25 = load ptr, ptr %8, align 8, !tbaa !3
  %26 = call ptr @lv_button_create(ptr noundef %25)
  store ptr %26, ptr %9, align 8, !tbaa !3
  %27 = load ptr, ptr %9, align 8, !tbaa !3
  call void @lv_obj_set_flex_grow(ptr noundef %27, i8 noundef zeroext 1)
  %28 = load ptr, ptr %9, align 8, !tbaa !3
  %29 = call i32 @lv_pct(i32 noundef 100)
  %30 = call i32 @lv_pct(i32 noundef 100)
  call void @lv_obj_set_size(ptr noundef %28, i32 noundef %29, i32 noundef %30)
  %31 = load ptr, ptr %9, align 8, !tbaa !3
  %32 = call ptr @lv_obj_add_event_cb(ptr noundef %31, ptr noundef @button_clicked_event_cb, i32 noundef 10, ptr noundef null)
  call void @llvm.lifetime.start.p0(i64 8, ptr %10) #4
  %33 = call ptr @lv_group_get_default()
  store ptr %33, ptr %10, align 8, !tbaa !3
  %34 = load ptr, ptr %10, align 8, !tbaa !3
  %35 = icmp ne ptr %34, null
  br i1 %35, label %36, label %39

36:                                               ; preds = %13
  %37 = load ptr, ptr %10, align 8, !tbaa !3
  %38 = load ptr, ptr %9, align 8, !tbaa !3
  call void @lv_group_add_obj(ptr noundef %37, ptr noundef %38)
  br label %39

39:                                               ; preds = %36, %13
  call void @llvm.lifetime.start.p0(i64 8, ptr %11) #4
  %40 = load ptr, ptr %9, align 8, !tbaa !3
  %41 = call ptr @lv_label_create(ptr noundef %40)
  store ptr %41, ptr %11, align 8, !tbaa !3
  %42 = load ptr, ptr %11, align 8, !tbaa !3
  %43 = load ptr, ptr %4, align 8, !tbaa !3
  call void @lv_label_set_text(ptr noundef %42, ptr noundef %43)
  %44 = load ptr, ptr %11, align 8, !tbaa !3
  call void @lv_obj_center(ptr noundef %44)
  %45 = load i32, ptr %7, align 4, !tbaa !13
  %46 = icmp eq i32 %45, 1
  br i1 %46, label %47, label %49

47:                                               ; preds = %39
  %48 = load ptr, ptr %3, align 8, !tbaa !3
  call void @lv_tabview_set_active(ptr noundef %48, i32 noundef 0, i32 noundef 0)
  br label %49

49:                                               ; preds = %47, %39
  %50 = load ptr, ptr %6, align 8, !tbaa !3
  call void @llvm.lifetime.end.p0(i64 8, ptr %11) #4
  call void @llvm.lifetime.end.p0(i64 8, ptr %10) #4
  call void @llvm.lifetime.end.p0(i64 8, ptr %9) #4
  call void @llvm.lifetime.end.p0(i64 8, ptr %8) #4
  call void @llvm.lifetime.end.p0(i64 4, ptr %7) #4
  call void @llvm.lifetime.end.p0(i64 8, ptr %6) #4
  call void @llvm.lifetime.end.p0(i64 8, ptr %5) #4
  ret ptr %50
}