; Function Attrs: nounwind uwtable
define ptr @lv_tabview_add_tab(ptr noundef %0, ptr noundef %1) local_unnamed_addr #0 {
  %3 = tail call ptr @lv_obj_get_child(ptr noundef %0, i32 noundef 1) #5
  %4 = tail call ptr @lv_obj_create(ptr noundef %3) #5
  %5 = tail call i32 @lv_pct(i32 noundef 100) #5
  %6 = tail call i32 @lv_pct(i32 noundef 100) #5
  tail call void @lv_obj_set_size(ptr noundef %4, i32 noundef %5, i32 noundef %6) #5
  %7 = tail call i32 @lv_obj_get_child_count(ptr noundef %3) #5
  %8 = tail call ptr @lv_obj_get_child(ptr noundef %0, i32 noundef 0) #5
  %9 = tail call ptr @lv_button_create(ptr noundef %8) #5
  tail call void @lv_obj_set_flex_grow(ptr noundef %9, i8 noundef zeroext 1) #5
  %10 = tail call i32 @lv_pct(i32 noundef 100) #5
  %11 = tail call i32 @lv_pct(i32 noundef 100) #5
  tail call void @lv_obj_set_size(ptr noundef %9, i32 noundef %10, i32 noundef %11) #5
  %12 = tail call ptr @lv_obj_add_event_cb(ptr noundef %9, ptr noundef nonnull @button_clicked_event_cb, i32 noundef 10, ptr noundef null) #5
  %13 = tail call ptr @lv_group_get_default() #5
  %.not = icmp eq ptr %13, null
  br i1 %.not, label %15, label %14

14:                                               ; preds = %2
  tail call void @lv_group_add_obj(ptr noundef nonnull %13, ptr noundef %9) #5
  br label %15

15:                                               ; preds = %14, %2
  %16 = tail call ptr @lv_label_create(ptr noundef %9) #5
  tail call void @lv_label_set_text(ptr noundef %16, ptr noundef %1) #5
  tail call void @lv_obj_center(ptr noundef %16) #5
  %17 = icmp eq i32 %7, 1
  br i1 %17, label %18, label %19

18:                                               ; preds = %15
  tail call void @lv_tabview_set_active(ptr noundef %0, i32 noundef 0, i32 noundef 0)
  br label %19

19:                                               ; preds = %18, %15
  ret ptr %4
}